target datalayout = "e-m:e-p270:32:32-p271:32:32-p272:64:64-i64:64-i128:128-f80:128-n8:16:32:64-S128"
target triple = "x86_64-unknown-linux-gnu"

%"class.icu_75::UTF16CollationIterator" = type { %"class.icu_75::CollationIterator.base", ptr, ptr, ptr }
%"class.icu_75::CollationIterator.base" = type <{ %"class.icu_75::UObject", ptr, ptr, %"class.icu_75::CollationIterator::CEBuffer", i32, [4 x i8], ptr, i32, i8 }>
%"class.icu_75::UObject" = type { ptr }
%"class.icu_75::CollationIterator::CEBuffer" = type { i32, %"class.icu_75::MaybeStackArray.0" }
%"class.icu_75::MaybeStackArray.0" = type { ptr, i32, i8, [40 x i64] }

; Function Attrs: mustprogress nounwind uwtable
define noundef i32 @_ZN6icu_7522UTF16CollationIterator17previousCodePointER10UErrorCode(ptr noundef nonnull align 8 dereferenceable(416) %this, ptr noundef nonnull align 4 dereferenceable(4) %0) unnamed_addr #0 align 2 {
entry:
  %retval = alloca i32, align 4
  %this.addr = alloca ptr, align 8
  %.addr = alloca ptr, align 8
  %c = alloca i32, align 4
  %lead = alloca i16, align 2
  store ptr %this, ptr %this.addr, align 8
  store ptr %0, ptr %.addr, align 8
  %this1 = load ptr, ptr %this.addr, align 8
  %pos = getelementptr inbounds %"class.icu_75::UTF16CollationIterator", ptr %this1, i32 0, i32 2
  %1 = load ptr, ptr %pos, align 8
  %start = getelementptr inbounds %"class.icu_75::UTF16CollationIterator", ptr %this1, i32 0, i32 1
  %2 = load ptr, ptr %start, align 8
  %cmp = icmp eq ptr %1, %2
  br i1 %cmp, label %if.then, label %if.end

if.then:                                          ; preds = %entry
  store i32 -1, ptr %retval, align 4
  br label %return

if.end:                                           ; preds = %entry
  %pos2 = getelementptr inbounds %"class.icu_75::UTF16CollationIterator", ptr %this1, i32 0, i32 2
  %3 = load ptr, ptr %pos2, align 8
  %incdec.ptr = getelementptr inbounds i16, ptr %3, i32 -1
  store ptr %incdec.ptr, ptr %pos2, align 8
  %4 = load i16, ptr %incdec.ptr, align 2
  %conv = zext i16 %4 to i32
  store i32 %conv, ptr %c, align 4
  %5 = load i32, ptr %c, align 4
  %and = and i32 %5, -1024
  %cmp3 = icmp eq i32 %and, 56320
  br i1 %cmp3, label %land.lhs.true, label %if.else

land.lhs.true:                                    ; preds = %if.end
  %pos4 = getelementptr inbounds %"class.icu_75::UTF16CollationIterator", ptr %this1, i32 0, i32 2
  %6 = load ptr, ptr %pos4, align 8
  %start5 = getelementptr inbounds %"class.icu_75::UTF16CollationIterator", ptr %this1, i32 0, i32 1
  %7 = load ptr, ptr %start5, align 8
  %cmp6 = icmp ne ptr %6, %7
  br i1 %cmp6, label %land.lhs.true7, label %if.else

land.lhs.true7:                                   ; preds = %land.lhs.true
  %pos8 = getelementptr inbounds %"class.icu_75::UTF16CollationIterator", ptr %this1, i32 0, i32 2
  %8 = load ptr, ptr %pos8, align 8
  %add.ptr = getelementptr inbounds i16, ptr %8, i64 -1
  %9 = load i16, ptr %add.ptr, align 2
  store i16 %9, ptr %lead, align 2
  %conv9 = zext i16 %9 to i32
  %and10 = and i32 %conv9, -1024
  %cmp11 = icmp eq i32 %and10, 55296
  br i1 %cmp11, label %if.then12, label %if.else

if.then12:                                        ; preds = %land.lhs.true7
  %pos13 = getelementptr inbounds %"class.icu_75::UTF16CollationIterator", ptr %this1, i32 0, i32 2
  %10 = load ptr, ptr %pos13, align 8
  %incdec.ptr14 = getelementptr inbounds i16, ptr %10, i32 -1
  store ptr %incdec.ptr14, ptr %pos13, align 8
  %11 = load i16, ptr %lead, align 2
  %conv15 = zext i16 %11 to i32
  %shl = shl i32 %conv15, 10
  %12 = load i32, ptr %c, align 4
  %add = add nsw i32 %shl, %12
  %sub = sub nsw i32 %add, 56613888
  store i32 %sub, ptr %retval, align 4
  br label %return

if.else:                                          ; preds = %land.lhs.true7, %land.lhs.true, %if.end
  %13 = load i32, ptr %c, align 4
  store i32 %13, ptr %retval, align 4
  br label %return

return:                                           ; preds = %if.else, %if.then12, %if.then
  %14 = load i32, ptr %retval, align 4
  ret i32 %14
}