; Function Attrs: mustprogress nofree norecurse nosync nounwind willreturn memory(read, argmem: readwrite, inaccessiblemem: none) uwtable
define noundef i32 @_ZN6icu_7522UTF16CollationIterator17previousCodePointER10UErrorCode(ptr nocapture noundef nonnull align 8 dereferenceable(416) %this, ptr nocapture nonnull readnone align 4 %0) unnamed_addr #8 align 2 {
entry:
  %pos = getelementptr inbounds i8, ptr %this, i64 400
  %1 = load ptr, ptr %pos, align 8
  %start = getelementptr inbounds i8, ptr %this, i64 392
  %2 = load ptr, ptr %start, align 8
  %cmp = icmp eq ptr %1, %2
  br i1 %cmp, label %return, label %if.end

if.end:                                           ; preds = %entry
  %incdec.ptr = getelementptr inbounds i8, ptr %1, i64 -2
  store ptr %incdec.ptr, ptr %pos, align 8
  %3 = load i16, ptr %incdec.ptr, align 2
  %conv = zext i16 %3 to i32
  %and = and i32 %conv, 64512
  %cmp3 = icmp ne i32 %and, 56320
  %cmp6.not = icmp eq ptr %incdec.ptr, %2
  %or.cond = or i1 %cmp6.not, %cmp3
  br i1 %or.cond, label %return, label %land.lhs.true7

land.lhs.true7:                                   ; preds = %if.end
  %add.ptr = getelementptr inbounds i8, ptr %1, i64 -4
  %4 = load i16, ptr %add.ptr, align 2
  %conv9 = zext i16 %4 to i32
  %and10 = and i32 %conv9, 64512
  %cmp11 = icmp eq i32 %and10, 55296
  br i1 %cmp11, label %if.then12, label %return

if.then12:                                        ; preds = %land.lhs.true7
  store ptr %add.ptr, ptr %pos, align 8
  %shl = shl nuw nsw i32 %conv9, 10
  %add = add nuw nsw i32 %conv, -56613888
  %sub = add nsw i32 %add, %shl
  br label %return

return:                                           ; preds = %if.end, %land.lhs.true7, %entry, %if.then12
  %retval.0 = phi i32 [ %sub, %if.then12 ], [ -1, %entry ], [ %conv, %land.lhs.true7 ], [ %conv, %if.end ]
  ret i32 %retval.0
}